; ModuleID = '36/357.c'
source_filename = "36/357.c"
target datalayout = "e-m:e-p270:32:32-p271:32:32-p272:64:64-i64:64-f80:128-n8:16:32:64-S128"
target triple = "x86_64-pc-linux-gnu"

@.str = private unnamed_addr constant [6 x i8] c"%s %s\00", align 1
@.str.1 = private unnamed_addr constant [3 x i8] c"NO\00", align 1
@.str.2 = private unnamed_addr constant [4 x i8] c"YES\00", align 1

; Function Attrs: noinline nounwind uwtable
define dso_local void @main() #0 {
  %1 = alloca [50 x i8], align 16
  %2 = alloca [50 x i8], align 16
  %3 = alloca i8, align 1
  %4 = alloca i32, align 4
  %5 = alloca i32, align 4
  %6 = alloca i32, align 4
  %7 = alloca i32, align 4
  %8 = alloca i32, align 4
  %9 = alloca i32, align 4
  store i32 1, i32* %6, align 4
  store i32 0, i32* %9, align 4
  %10 = getelementptr inbounds [50 x i8], [50 x i8]* %1, i64 0, i64 0
  %11 = getelementptr inbounds [50 x i8], [50 x i8]* %2, i64 0, i64 0
  %12 = call i32 (i8*, ...) @__isoc99_scanf(i8* getelementptr inbounds ([6 x i8], [6 x i8]* @.str, i64 0, i64 0), i8* %10, i8* %11)
  %13 = getelementptr inbounds [50 x i8], [50 x i8]* %1, i64 0, i64 0
  %14 = call i64 @strlen(i8* %13) #3
  %15 = trunc i64 %14 to i32
  store i32 %15, i32* %4, align 4
  %16 = getelementptr inbounds [50 x i8], [50 x i8]* %2, i64 0, i64 0
  %17 = call i64 @strlen(i8* %16) #3
  %18 = trunc i64 %17 to i32
  store i32 %18, i32* %5, align 4
  %19 = load i32, i32* %4, align 4
  %20 = load i32, i32* %5, align 4
  %21 = icmp ne i32 %19, %20
  br i1 %21, label %22, label %23

22:                                               ; preds = %0
  store i32 0, i32* %6, align 4
  br label %23

23:                                               ; preds = %22, %0
  %24 = load i32, i32* %4, align 4
  %25 = load i32, i32* %5, align 4
  %26 = icmp eq i32 %24, %25
  br i1 %26, label %27, label %162

27:                                               ; preds = %23
  store i32 0, i32* %7, align 4
  br label %28

28:                                               ; preds = %91, %27
  %29 = load i32, i32* %7, align 4
  %30 = load i32, i32* %4, align 4
  %31 = icmp slt i32 %29, %30
  br i1 %31, label %32, label %94

32:                                               ; preds = %28
  %33 = load i32, i32* %9, align 4
  store i32 %33, i32* %8, align 4
  br label %34

34:                                               ; preds = %87, %32
  %35 = load i32, i32* %8, align 4
  %36 = load i32, i32* %5, align 4
  %37 = icmp slt i32 %35, %36
  br i1 %37, label %38, label %90

38:                                               ; preds = %34
  %39 = load i32, i32* %7, align 4
  %40 = sext i32 %39 to i64
  %41 = getelementptr inbounds [50 x i8], [50 x i8]* %1, i64 0, i64 %40
  %42 = load i8, i8* %41, align 1
  %43 = sext i8 %42 to i32
  %44 = load i32, i32* %8, align 4
  %45 = sext i32 %44 to i64
  %46 = getelementptr inbounds [50 x i8], [50 x i8]* %2, i64 0, i64 %45
  %47 = load i8, i8* %46, align 1
  %48 = sext i8 %47 to i32
  %49 = icmp eq i32 %43, %48
  br i1 %49, label %50, label %68

50:                                               ; preds = %38
  %51 = load i32, i32* %8, align 4
  %52 = sext i32 %51 to i64
  %53 = getelementptr inbounds [50 x i8], [50 x i8]* %2, i64 0, i64 %52
  %54 = load i8, i8* %53, align 1
  store i8 %54, i8* %3, align 1
  %55 = load i32, i32* %9, align 4
  %56 = sext i32 %55 to i64
  %57 = getelementptr inbounds [50 x i8], [50 x i8]* %2, i64 0, i64 %56
  %58 = load i8, i8* %57, align 1
  %59 = load i32, i32* %8, align 4
  %60 = sext i32 %59 to i64
  %61 = getelementptr inbounds [50 x i8], [50 x i8]* %2, i64 0, i64 %60
  store i8 %58, i8* %61, align 1
  %62 = load i8, i8* %3, align 1
  %63 = load i32, i32* %9, align 4
  %64 = sext i32 %63 to i64
  %65 = getelementptr inbounds [50 x i8], [50 x i8]* %2, i64 0, i64 %64
  store i8 %62, i8* %65, align 1
  %66 = load i32, i32* %9, align 4
  %67 = add nsw i32 %66, 1
  store i32 %67, i32* %9, align 4
  br label %90

68:                                               ; preds = %38
  %69 = load i32, i32* %8, align 4
  %70 = load i32, i32* %5, align 4
  %71 = sub nsw i32 %70, 1
  %72 = icmp eq i32 %69, %71
  br i1 %72, label %73, label %86

73:                                               ; preds = %68
  %74 = load i32, i32* %7, align 4
  %75 = sext i32 %74 to i64
  %76 = getelementptr inbounds [50 x i8], [50 x i8]* %1, i64 0, i64 %75
  %77 = load i8, i8* %76, align 1
  %78 = sext i8 %77 to i32
  %79 = load i32, i32* %8, align 4
  %80 = sext i32 %79 to i64
  %81 = getelementptr inbounds [50 x i8], [50 x i8]* %2, i64 0, i64 %80
  %82 = load i8, i8* %81, align 1
  %83 = sext i8 %82 to i32
  %84 = icmp ne i32 %78, %83
  br i1 %84, label %85, label %86

85:                                               ; preds = %73
  store i32 0, i32* %6, align 4
  br label %86

86:                                               ; preds = %85, %73, %68
  br label %87

87:                                               ; preds = %86
  %88 = load i32, i32* %8, align 4
  %89 = add nsw i32 %88, 1
  store i32 %89, i32* %8, align 4
  br label %34

90:                                               ; preds = %50, %34
  br label %91

91:                                               ; preds = %90
  %92 = load i32, i32* %7, align 4
  %93 = add nsw i32 %92, 1
  store i32 %93, i32* %7, align 4
  br label %28

94:                                               ; preds = %28
  store i32 0, i32* %7, align 4
  br label %95

95:                                               ; preds = %158, %94
  %96 = load i32, i32* %7, align 4
  %97 = load i32, i32* %4, align 4
  %98 = icmp slt i32 %96, %97
  br i1 %98, label %99, label %161

99:                                               ; preds = %95
  %100 = load i32, i32* %9, align 4
  store i32 %100, i32* %8, align 4
  br label %101

101:                                              ; preds = %154, %99
  %102 = load i32, i32* %8, align 4
  %103 = load i32, i32* %5, align 4
  %104 = icmp slt i32 %102, %103
  br i1 %104, label %105, label %157

105:                                              ; preds = %101
  %106 = load i32, i32* %7, align 4
  %107 = sext i32 %106 to i64
  %108 = getelementptr inbounds [50 x i8], [50 x i8]* %2, i64 0, i64 %107
  %109 = load i8, i8* %108, align 1
  %110 = sext i8 %109 to i32
  %111 = load i32, i32* %8, align 4
  %112 = sext i32 %111 to i64
  %113 = getelementptr inbounds [50 x i8], [50 x i8]* %1, i64 0, i64 %112
  %114 = load i8, i8* %113, align 1
  %115 = sext i8 %114 to i32
  %116 = icmp eq i32 %110, %115
  br i1 %116, label %117, label %135

117:                                              ; preds = %105
  %118 = load i32, i32* %8, align 4
  %119 = sext i32 %118 to i64
  %120 = getelementptr inbounds [50 x i8], [50 x i8]* %1, i64 0, i64 %119
  %121 = load i8, i8* %120, align 1
  store i8 %121, i8* %3, align 1
  %122 = load i32, i32* %9, align 4
  %123 = sext i32 %122 to i64
  %124 = getelementptr inbounds [50 x i8], [50 x i8]* %1, i64 0, i64 %123
  %125 = load i8, i8* %124, align 1
  %126 = load i32, i32* %8, align 4
  %127 = sext i32 %126 to i64
  %128 = getelementptr inbounds [50 x i8], [50 x i8]* %1, i64 0, i64 %127
  store i8 %125, i8* %128, align 1
  %129 = load i8, i8* %3, align 1
  %130 = load i32, i32* %9, align 4
  %131 = sext i32 %130 to i64
  %132 = getelementptr inbounds [50 x i8], [50 x i8]* %1, i64 0, i64 %131
  store i8 %129, i8* %132, align 1
  %133 = load i32, i32* %9, align 4
  %134 = add nsw i32 %133, 1
  store i32 %134, i32* %9, align 4
  br label %157

135:                                              ; preds = %105
  %136 = load i32, i32* %8, align 4
  %137 = load i32, i32* %5, align 4
  %138 = sub nsw i32 %137, 1
  %139 = icmp eq i32 %136, %138
  br i1 %139, label %140, label %153

140:                                              ; preds = %135
  %141 = load i32, i32* %7, align 4
  %142 = sext i32 %141 to i64
  %143 = getelementptr inbounds [50 x i8], [50 x i8]* %1, i64 0, i64 %142
  %144 = load i8, i8* %143, align 1
  %145 = sext i8 %144 to i32
  %146 = load i32, i32* %8, align 4
  %147 = sext i32 %146 to i64
  %148 = getelementptr inbounds [50 x i8], [50 x i8]* %2, i64 0, i64 %147
  %149 = load i8, i8* %148, align 1
  %150 = sext i8 %149 to i32
  %151 = icmp ne i32 %145, %150
  br i1 %151, label %152, label %153

152:                                              ; preds = %140
  store i32 0, i32* %6, align 4
  br label %153

153:                                              ; preds = %152, %140, %135
  br label %154

154:                                              ; preds = %153
  %155 = load i32, i32* %8, align 4
  %156 = add nsw i32 %155, 1
  store i32 %156, i32* %8, align 4
  br label %101

157:                                              ; preds = %117, %101
  br label %158

158:                                              ; preds = %157
  %159 = load i32, i32* %7, align 4
  %160 = add nsw i32 %159, 1
  store i32 %160, i32* %7, align 4
  br label %95

161:                                              ; preds = %95
  br label %162

162:                                              ; preds = %161, %23
  %163 = load i32, i32* %6, align 4
  %164 = icmp eq i32 %163, 0
  br i1 %164, label %165, label %167

165:                                              ; preds = %162
  %166 = call i32 (i8*, ...) @printf(i8* getelementptr inbounds ([3 x i8], [3 x i8]* @.str.1, i64 0, i64 0))
  br label %167

167:                                              ; preds = %165, %162
  %168 = load i32, i32* %6, align 4
  %169 = icmp ne i32 %168, 0
  br i1 %169, label %170, label %172

170:                                              ; preds = %167
  %171 = call i32 (i8*, ...) @printf(i8* getelementptr inbounds ([4 x i8], [4 x i8]* @.str.2, i64 0, i64 0))
  br label %172

172:                                              ; preds = %170, %167
  ret void
}

declare dso_local i32 @__isoc99_scanf(i8*, ...) #1

; Function Attrs: nounwind readonly
declare dso_local i64 @strlen(i8*) #2

declare dso_local i32 @printf(i8*, ...) #1


!llvm.module.flags = !{!0}
!llvm.ident = !{!1}

!0 = !{i32 1, !"wchar_size", i32 4}
!1 = !{!"clang version 10.0.0-4ubuntu1 "}
